; Function Attrs: nounwind uwtable
define internal fastcc noundef zeroext i1 @php_dom_node_list_equality_check_unordered_xmlNode(ptr noundef %0, ptr noundef %1) unnamed_addr #0 {
  %.not4.i = icmp eq ptr %0, null
  br i1 %.not4.i, label %php_dom_node_count_list_size_xmlNode.exit, label %.lr.ph.i

.lr.ph.i:                                         ; preds = %2, %.lr.ph.i
  %.06.i = phi i64 [ %3, %.lr.ph.i ], [ 0, %2 ]
  %.035.i = phi ptr [ %5, %.lr.ph.i ], [ %0, %2 ]
  %3 = add i64 %.06.i, 1
  %4 = getelementptr inbounds i8, ptr %.035.i, i64 48
  %5 = load ptr, ptr %4, align 8
  %.not.i = icmp eq ptr %5, null
  br i1 %.not.i, label %php_dom_node_count_list_size_xmlNode.exit, label %.lr.ph.i

php_dom_node_count_list_size_xmlNode.exit:        ; preds = %.lr.ph.i, %2
  %.0.lcssa.i = phi i64 [ 0, %2 ], [ %3, %.lr.ph.i ]
  %.not4.i18 = icmp eq ptr %1, null
  br i1 %.not4.i18, label %php_dom_node_count_list_size_xmlNode.exit24, label %.lr.ph.i19

.lr.ph.i19:                                       ; preds = %php_dom_node_count_list_size_xmlNode.exit, %.lr.ph.i19
  %.06.i20 = phi i64 [ %6, %.lr.ph.i19 ], [ 0, %php_dom_node_count_list_size_xmlNode.exit ]
  %.035.i21 = phi ptr [ %8, %.lr.ph.i19 ], [ %1, %php_dom_node_count_list_size_xmlNode.exit ]
  %6 = add i64 %.06.i20, 1
  %7 = getelementptr inbounds i8, ptr %.035.i21, i64 48
  %8 = load ptr, ptr %7, align 8
  %.not.i22 = icmp eq ptr %8, null
  br i1 %.not.i22, label %php_dom_node_count_list_size_xmlNode.exit24, label %.lr.ph.i19

php_dom_node_count_list_size_xmlNode.exit24:      ; preds = %.lr.ph.i19, %php_dom_node_count_list_size_xmlNode.exit
  %.0.lcssa.i23 = phi i64 [ 0, %php_dom_node_count_list_size_xmlNode.exit ], [ %6, %.lr.ph.i19 ]
  %.not = icmp ne i64 %.0.lcssa.i, %.0.lcssa.i23
  %brmerge = or i1 %.not, %.not4.i
  %not..not = xor i1 %.not, true
  %brmerge38 = or i1 %brmerge, %.not4.i18
  %.mux.mux = and i1 %.not4.i, %not..not
  br i1 %brmerge38, label %.loopexit, label %.preheader.us

.preheader.us:                                    ; preds = %php_dom_node_count_list_size_xmlNode.exit24, %9
  %.01430.us = phi ptr [ %11, %9 ], [ %0, %php_dom_node_count_list_size_xmlNode.exit24 ]
  br label %12

9:                                                ; preds = %._crit_edge.us
  %10 = getelementptr inbounds i8, ptr %.01430.us, i64 48
  %11 = load ptr, ptr %10, align 8
  %.not16.us = icmp eq ptr %11, null
  br i1 %.not16.us, label %.loopexit.loopexit, label %.preheader.us

12:                                               ; preds = %.preheader.us, %12
  %.028.us = phi ptr [ %1, %.preheader.us ], [ %15, %12 ]
  %.01327.us = phi i8 [ 0, %.preheader.us ], [ %spec.select.us, %12 ]
  %13 = tail call fastcc zeroext i1 @php_dom_node_is_equal_node(ptr noundef nonnull %.01430.us, ptr noundef nonnull %.028.us)
  %spec.select.us = select i1 %13, i8 1, i8 %.01327.us
  %14 = getelementptr inbounds i8, ptr %.028.us, i64 48
  %15 = load ptr, ptr %14, align 8
  %16 = icmp ne ptr %15, null
  %17 = and i8 %spec.select.us, 1
  %.not17.us = icmp eq i8 %17, 0
  %18 = select i1 %16, i1 %.not17.us, i1 false
  br i1 %18, label %12, label %._crit_edge.us

._crit_edge.us:                                   ; preds = %12
  br i1 %.not17.us, label %.loopexit.loopexit, label %9

.loopexit.loopexit:                               ; preds = %9, %._crit_edge.us
  %.015.ph = xor i1 %.not17.us, true
  br label %.loopexit

.loopexit:                                        ; preds = %php_dom_node_count_list_size_xmlNode.exit24, %.loopexit.loopexit
  %.015 = phi i1 [ %.mux.mux, %php_dom_node_count_list_size_xmlNode.exit24 ], [ %.015.ph, %.loopexit.loopexit ]
  ret i1 %.015
}